target datalayout = "e-m:e-p270:32:32-p271:32:32-p272:64:64-i64:64-i128:128-f80:128-n8:16:32:64-S128"
target triple = "x86_64-pc-linux-gnu"

%struct.InterpFilterParams = type { ptr, i16, i8 }
%struct.ConvolveParams = type { i32, ptr, i32, i32, i32, i32, i32, i32, i32, i32 }

; Function Attrs: nounwind uwtable
define internal zeroext i8 @clip_pixel(i32 noundef %0) #0 {
  %2 = alloca i32, align 4
  store i32 %0, ptr %2, align 4
  %3 = load i32, ptr %2, align 4
  %4 = icmp sgt i32 %3, 255
  br i1 %4, label %5, label %6

5:                                                ; preds = %1
  br label %14

6:                                                ; preds = %1
  %7 = load i32, ptr %2, align 4
  %8 = icmp slt i32 %7, 0
  br i1 %8, label %9, label %10

9:                                                ; preds = %6
  br label %12

10:                                               ; preds = %6
  %11 = load i32, ptr %2, align 4
  br label %12

12:                                               ; preds = %10, %9
  %13 = phi i32 [ 0, %9 ], [ %11, %10 ]
  br label %14

14:                                               ; preds = %12, %5
  %15 = phi i32 [ 255, %5 ], [ %13, %12 ]
  %16 = trunc i32 %15 to i8
  ret i8 %16
}

; Function Attrs: nounwind uwtable
define internal ptr @av1_get_interp_filter_subpel_kernel(ptr noundef %0, i32 noundef %1) #0 {
  %3 = alloca ptr, align 8
  %4 = alloca i32, align 4
  store ptr %0, ptr %3, align 8
  store i32 %1, ptr %4, align 4
  %5 = load ptr, ptr %3, align 8
  %6 = getelementptr inbounds nuw %struct.InterpFilterParams, ptr %5, i32 0, i32 0
  %7 = load ptr, ptr %6, align 8
  %8 = load ptr, ptr %3, align 8
  %9 = getelementptr inbounds nuw %struct.InterpFilterParams, ptr %8, i32 0, i32 1
  %10 = load i16, ptr %9, align 8
  %11 = zext i16 %10 to i32
  %12 = load i32, ptr %4, align 4
  %13 = mul nsw i32 %11, %12
  %14 = sext i32 %13 to i64
  %15 = getelementptr inbounds i16, ptr %7, i64 %14
  ret ptr %15
}

; Function Attrs: nounwind uwtable
define hidden void @av1_convolve_2d_sr_c(ptr noundef %0, i32 noundef %1, ptr noundef %2, i32 noundef %3, i32 noundef %4, i32 noundef %5, ptr noundef %6, ptr noundef %7, i32 noundef %8, i32 noundef %9, ptr noundef %10) #0 {
  %12 = alloca ptr, align 8
  %13 = alloca i32, align 4
  %14 = alloca ptr, align 8
  %15 = alloca i32, align 4
  %16 = alloca i32, align 4
  %17 = alloca i32, align 4
  %18 = alloca ptr, align 8
  %19 = alloca ptr, align 8
  %20 = alloca i32, align 4
  %21 = alloca i32, align 4
  %22 = alloca ptr, align 8
  %23 = alloca [17792 x i16], align 16
  %24 = alloca i32, align 4
  %25 = alloca i32, align 4
  %26 = alloca i32, align 4
  %27 = alloca i32, align 4
  %28 = alloca i32, align 4
  %29 = alloca i32, align 4
  %30 = alloca ptr, align 8
  %31 = alloca ptr, align 8
  %32 = alloca i32, align 4
  %33 = alloca i32, align 4
  %34 = alloca i32, align 4
  %35 = alloca i32, align 4
  %36 = alloca ptr, align 8
  %37 = alloca ptr, align 8
  %38 = alloca i32, align 4
  %39 = alloca i32, align 4
  %40 = alloca i32, align 4
  %41 = alloca i32, align 4
  %42 = alloca i32, align 4
  %43 = alloca i16, align 2
  store ptr %0, ptr %12, align 8
  store i32 %1, ptr %13, align 4
  store ptr %2, ptr %14, align 8
  store i32 %3, ptr %15, align 4
  store i32 %4, ptr %16, align 4
  store i32 %5, ptr %17, align 4
  store ptr %6, ptr %18, align 8
  store ptr %7, ptr %19, align 8
  store i32 %8, ptr %20, align 4
  store i32 %9, ptr %21, align 4
  store ptr %10, ptr %22, align 8
  %44 = load i32, ptr %17, align 4
  %45 = load ptr, ptr %19, align 8
  %46 = getelementptr inbounds nuw %struct.InterpFilterParams, ptr %45, i32 0, i32 1
  %47 = load i16, ptr %46, align 8
  %48 = zext i16 %47 to i32
  %49 = add nsw i32 %44, %48
  %50 = sub nsw i32 %49, 1
  store i32 %50, ptr %24, align 4
  %51 = load i32, ptr %16, align 4
  store i32 %51, ptr %25, align 4
  %52 = load ptr, ptr %19, align 8
  %53 = getelementptr inbounds nuw %struct.InterpFilterParams, ptr %52, i32 0, i32 1
  %54 = load i16, ptr %53, align 8
  %55 = zext i16 %54 to i32
  %56 = sdiv i32 %55, 2
  %57 = sub nsw i32 %56, 1
  store i32 %57, ptr %26, align 4
  %58 = load ptr, ptr %18, align 8
  %59 = getelementptr inbounds nuw %struct.InterpFilterParams, ptr %58, i32 0, i32 1
  %60 = load i16, ptr %59, align 8
  %61 = zext i16 %60 to i32
  %62 = sdiv i32 %61, 2
  %63 = sub nsw i32 %62, 1
  store i32 %63, ptr %27, align 4
  store i32 8, ptr %28, align 4
  %64 = load ptr, ptr %22, align 8
  %65 = getelementptr inbounds nuw %struct.ConvolveParams, ptr %64, i32 0, i32 3
  %66 = load i32, ptr %65, align 4
  %67 = sub nsw i32 14, %66
  %68 = load ptr, ptr %22, align 8
  %69 = getelementptr inbounds nuw %struct.ConvolveParams, ptr %68, i32 0, i32 4
  %70 = load i32, ptr %69, align 8
  %71 = sub nsw i32 %67, %70
  store i32 %71, ptr %29, align 4
  %72 = load ptr, ptr %12, align 8
  %73 = load i32, ptr %26, align 4
  %74 = load i32, ptr %13, align 4
  %75 = mul nsw i32 %73, %74
  %76 = sext i32 %75 to i64
  %77 = sub i64 0, %76
  %78 = getelementptr inbounds i8, ptr %72, i64 %77
  store ptr %78, ptr %30, align 8
  %79 = load ptr, ptr %18, align 8
  %80 = load i32, ptr %20, align 4
  %81 = and i32 %80, 15
  %82 = call ptr @av1_get_interp_filter_subpel_kernel(ptr noundef %79, i32 noundef %81)
  store ptr %82, ptr %31, align 8
  store i32 0, ptr %32, align 4
  br label %83

83:                                               ; preds = %151, %11
  %84 = load i32, ptr %32, align 4
  %85 = load i32, ptr %24, align 4
  %86 = icmp slt i32 %84, %85
  br i1 %86, label %87, label %154

87:                                               ; preds = %83
  store i32 0, ptr %33, align 4
  br label %88

88:                                               ; preds = %147, %87
  %89 = load i32, ptr %33, align 4
  %90 = load i32, ptr %16, align 4
  %91 = icmp slt i32 %89, %90
  br i1 %91, label %92, label %150

92:                                               ; preds = %88
  store i32 16384, ptr %34, align 4
  store i32 0, ptr %35, align 4
  br label %93

93:                                               ; preds = %124, %92
  %94 = load i32, ptr %35, align 4
  %95 = load ptr, ptr %18, align 8
  %96 = getelementptr inbounds nuw %struct.InterpFilterParams, ptr %95, i32 0, i32 1
  %97 = load i16, ptr %96, align 8
  %98 = zext i16 %97 to i32
  %99 = icmp slt i32 %94, %98
  br i1 %99, label %100, label %127

100:                                              ; preds = %93
  %101 = load ptr, ptr %31, align 8
  %102 = load i32, ptr %35, align 4
  %103 = sext i32 %102 to i64
  %104 = getelementptr inbounds i16, ptr %101, i64 %103
  %105 = load i16, ptr %104, align 2
  %106 = sext i16 %105 to i32
  %107 = load ptr, ptr %30, align 8
  %108 = load i32, ptr %32, align 4
  %109 = load i32, ptr %13, align 4
  %110 = mul nsw i32 %108, %109
  %111 = load i32, ptr %33, align 4
  %112 = add nsw i32 %110, %111
  %113 = load i32, ptr %27, align 4
  %114 = sub nsw i32 %112, %113
  %115 = load i32, ptr %35, align 4
  %116 = add nsw i32 %114, %115
  %117 = sext i32 %116 to i64
  %118 = getelementptr inbounds i8, ptr %107, i64 %117
  %119 = load i8, ptr %118, align 1
  %120 = zext i8 %119 to i32
  %121 = mul nsw i32 %106, %120
  %122 = load i32, ptr %34, align 4
  %123 = add nsw i32 %122, %121
  store i32 %123, ptr %34, align 4
  br label %124

124:                                              ; preds = %100
  %125 = load i32, ptr %35, align 4
  %126 = add nsw i32 %125, 1
  store i32 %126, ptr %35, align 4
  br label %93, !llvm.loop !17

127:                                              ; preds = %93
  %128 = load i32, ptr %34, align 4
  %129 = load ptr, ptr %22, align 8
  %130 = getelementptr inbounds nuw %struct.ConvolveParams, ptr %129, i32 0, i32 3
  %131 = load i32, ptr %130, align 4
  %132 = shl i32 1, %131
  %133 = ashr i32 %132, 1
  %134 = add nsw i32 %128, %133
  %135 = load ptr, ptr %22, align 8
  %136 = getelementptr inbounds nuw %struct.ConvolveParams, ptr %135, i32 0, i32 3
  %137 = load i32, ptr %136, align 4
  %138 = ashr i32 %134, %137
  %139 = trunc i32 %138 to i16
  %140 = load i32, ptr %32, align 4
  %141 = load i32, ptr %25, align 4
  %142 = mul nsw i32 %140, %141
  %143 = load i32, ptr %33, align 4
  %144 = add nsw i32 %142, %143
  %145 = sext i32 %144 to i64
  %146 = getelementptr inbounds [17792 x i16], ptr %23, i64 0, i64 %145
  store i16 %139, ptr %146, align 2
  br label %147

147:                                              ; preds = %127
  %148 = load i32, ptr %33, align 4
  %149 = add nsw i32 %148, 1
  store i32 %149, ptr %33, align 4
  br label %88, !llvm.loop !18

150:                                              ; preds = %88
  br label %151

151:                                              ; preds = %150
  %152 = load i32, ptr %32, align 4
  %153 = add nsw i32 %152, 1
  store i32 %153, ptr %32, align 4
  br label %83, !llvm.loop !19

154:                                              ; preds = %83
  %155 = getelementptr inbounds [17792 x i16], ptr %23, i64 0, i64 0
  %156 = load i32, ptr %26, align 4
  %157 = load i32, ptr %25, align 4
  %158 = mul nsw i32 %156, %157
  %159 = sext i32 %158 to i64
  %160 = getelementptr inbounds i16, ptr %155, i64 %159
  store ptr %160, ptr %36, align 8
  %161 = load ptr, ptr %19, align 8
  %162 = load i32, ptr %21, align 4
  %163 = and i32 %162, 15
  %164 = call ptr @av1_get_interp_filter_subpel_kernel(ptr noundef %161, i32 noundef %163)
  store ptr %164, ptr %37, align 8
  %165 = load ptr, ptr %22, align 8
  %166 = getelementptr inbounds nuw %struct.ConvolveParams, ptr %165, i32 0, i32 3
  %167 = load i32, ptr %166, align 4
  %168 = sub nsw i32 22, %167
  store i32 %168, ptr %38, align 4
  store i32 0, ptr %39, align 4
  br label %169

169:                                              ; preds = %264, %154
  %170 = load i32, ptr %39, align 4
  %171 = load i32, ptr %17, align 4
  %172 = icmp slt i32 %170, %171
  br i1 %172, label %173, label %267

173:                                              ; preds = %169
  store i32 0, ptr %40, align 4
  br label %174

174:                                              ; preds = %260, %173
  %175 = load i32, ptr %40, align 4
  %176 = load i32, ptr %16, align 4
  %177 = icmp slt i32 %175, %176
  br i1 %177, label %178, label %263

178:                                              ; preds = %174
  %179 = load i32, ptr %38, align 4
  %180 = shl i32 1, %179
  store i32 %180, ptr %41, align 4
  store i32 0, ptr %42, align 4
  br label %181

181:                                              ; preds = %212, %178
  %182 = load i32, ptr %42, align 4
  %183 = load ptr, ptr %19, align 8
  %184 = getelementptr inbounds nuw %struct.InterpFilterParams, ptr %183, i32 0, i32 1
  %185 = load i16, ptr %184, align 8
  %186 = zext i16 %185 to i32
  %187 = icmp slt i32 %182, %186
  br i1 %187, label %188, label %215

188:                                              ; preds = %181
  %189 = load ptr, ptr %37, align 8
  %190 = load i32, ptr %42, align 4
  %191 = sext i32 %190 to i64
  %192 = getelementptr inbounds i16, ptr %189, i64 %191
  %193 = load i16, ptr %192, align 2
  %194 = sext i16 %193 to i32
  %195 = load ptr, ptr %36, align 8
  %196 = load i32, ptr %39, align 4
  %197 = load i32, ptr %26, align 4
  %198 = sub nsw i32 %196, %197
  %199 = load i32, ptr %42, align 4
  %200 = add nsw i32 %198, %199
  %201 = load i32, ptr %25, align 4
  %202 = mul nsw i32 %200, %201
  %203 = load i32, ptr %40, align 4
  %204 = add nsw i32 %202, %203
  %205 = sext i32 %204 to i64
  %206 = getelementptr inbounds i16, ptr %195, i64 %205
  %207 = load i16, ptr %206, align 2
  %208 = sext i16 %207 to i32
  %209 = mul nsw i32 %194, %208
  %210 = load i32, ptr %41, align 4
  %211 = add nsw i32 %210, %209
  store i32 %211, ptr %41, align 4
  br label %212

212:                                              ; preds = %188
  %213 = load i32, ptr %42, align 4
  %214 = add nsw i32 %213, 1
  store i32 %214, ptr %42, align 4
  br label %181, !llvm.loop !20

215:                                              ; preds = %181
  %216 = load i32, ptr %41, align 4
  %217 = load ptr, ptr %22, align 8
  %218 = getelementptr inbounds nuw %struct.ConvolveParams, ptr %217, i32 0, i32 4
  %219 = load i32, ptr %218, align 8
  %220 = shl i32 1, %219
  %221 = ashr i32 %220, 1
  %222 = add nsw i32 %216, %221
  %223 = load ptr, ptr %22, align 8
  %224 = getelementptr inbounds nuw %struct.ConvolveParams, ptr %223, i32 0, i32 4
  %225 = load i32, ptr %224, align 8
  %226 = ashr i32 %222, %225
  %227 = load i32, ptr %38, align 4
  %228 = load ptr, ptr %22, align 8
  %229 = getelementptr inbounds nuw %struct.ConvolveParams, ptr %228, i32 0, i32 4
  %230 = load i32, ptr %229, align 8
  %231 = sub nsw i32 %227, %230
  %232 = shl i32 1, %231
  %233 = load i32, ptr %38, align 4
  %234 = load ptr, ptr %22, align 8
  %235 = getelementptr inbounds nuw %struct.ConvolveParams, ptr %234, i32 0, i32 4
  %236 = load i32, ptr %235, align 8
  %237 = sub nsw i32 %233, %236
  %238 = sub nsw i32 %237, 1
  %239 = shl i32 1, %238
  %240 = add nsw i32 %232, %239
  %241 = sub nsw i32 %226, %240
  %242 = trunc i32 %241 to i16
  store i16 %242, ptr %43, align 2
  %243 = load i16, ptr %43, align 2
  %244 = sext i16 %243 to i32
  %245 = load i32, ptr %29, align 4
  %246 = shl i32 1, %245
  %247 = ashr i32 %246, 1
  %248 = add nsw i32 %244, %247
  %249 = load i32, ptr %29, align 4
  %250 = ashr i32 %248, %249
  %251 = call zeroext i8 @clip_pixel(i32 noundef %250)
  %252 = load ptr, ptr %14, align 8
  %253 = load i32, ptr %39, align 4
  %254 = load i32, ptr %15, align 4
  %255 = mul nsw i32 %253, %254
  %256 = load i32, ptr %40, align 4
  %257 = add nsw i32 %255, %256
  %258 = sext i32 %257 to i64
  %259 = getelementptr inbounds i8, ptr %252, i64 %258
  store i8 %251, ptr %259, align 1
  br label %260

260:                                              ; preds = %215
  %261 = load i32, ptr %40, align 4
  %262 = add nsw i32 %261, 1
  store i32 %262, ptr %40, align 4
  br label %174, !llvm.loop !21

263:                                              ; preds = %174
  br label %264

264:                                              ; preds = %263
  %265 = load i32, ptr %39, align 4
  %266 = add nsw i32 %265, 1
  store i32 %266, ptr %39, align 4
  br label %169, !llvm.loop !22

267:                                              ; preds = %169
  ret void
}