; Function Attrs: nofree norecurse nosync nounwind memory(read, argmem: readwrite, inaccessiblemem: none) uwtable
define hidden void @av1_convolve_2d_sr_c(ptr noundef readonly captures(none) %0, i32 noundef %1, ptr noundef writeonly captures(none) %2, i32 noundef %3, i32 noundef %4, i32 noundef %5, ptr noundef readonly captures(none) %6, ptr noundef readonly captures(none) %7, i32 noundef %8, i32 noundef %9, ptr noundef readonly captures(none) %10) local_unnamed_addr #1 {
  %12 = alloca [17792 x i16], align 16
  %13 = getelementptr inbounds nuw i8, ptr %7, i64 8
  %14 = load i16, ptr %13, align 8
  %15 = zext i16 %14 to i32
  %16 = add i32 %5, -1
  %17 = add i32 %16, %15
  %18 = lshr i32 %15, 1
  %19 = add nsw i32 %18, -1
  %20 = getelementptr inbounds nuw i8, ptr %6, i64 8
  %21 = load i16, ptr %20, align 8
  %22 = getelementptr inbounds nuw i8, ptr %10, i64 20
  %23 = load i32, ptr %22, align 4
  %24 = getelementptr inbounds nuw i8, ptr %10, i64 24
  %25 = load i32, ptr %24, align 8
  %26 = add i32 %23, %25
  %27 = sub i32 14, %26
  %28 = mul nsw i32 %19, %1
  %29 = sext i32 %28 to i64
  %30 = sub nsw i64 0, %29
  %31 = getelementptr inbounds i8, ptr %0, i64 %30
  %32 = and i32 %8, 15
  %.val = load ptr, ptr %6, align 8
  %33 = zext i16 %21 to i32
  %34 = mul nuw nsw i32 %32, %33
  %35 = zext nneg i32 %34 to i64
  %36 = getelementptr inbounds nuw i16, ptr %.val, i64 %35
  %37 = icmp sgt i32 %17, 0
  br i1 %37, label %.preheader93.lr.ph, label %._crit_edge

.preheader93.lr.ph:                               ; preds = %11
  %38 = lshr i16 %21, 1
  %39 = zext nneg i16 %38 to i32
  %40 = icmp sgt i32 %4, 0
  %41 = shl nuw i32 1, %23
  %42 = ashr i32 %41, 1
  %43 = add nsw i32 %42, 16384
  %44 = ashr i32 %43, %23
  %45 = trunc i32 %44 to i16
  br i1 %40, label %.preheader93.lr.ph.split.us, label %._crit_edge

.preheader93.lr.ph.split.us:                      ; preds = %.preheader93.lr.ph
  %.not = icmp eq i16 %21, 0
  %46 = zext nneg i32 %4 to i64
  %wide.trip.count137 = zext nneg i32 %17 to i64
  br i1 %.not, label %.preheader93.us, label %.preheader93.us.us.preheader

.preheader93.us.us.preheader:                     ; preds = %.preheader93.lr.ph.split.us
  %wide.trip.count122 = zext nneg i32 %4 to i64
  %wide.trip.count = zext i16 %21 to i64
  br label %.preheader93.us.us

.preheader93.us.us:                               ; preds = %.preheader93.us.us.preheader, %._crit_edge97.split.us.us.us
  %indvars.iv124 = phi i64 [ 0, %.preheader93.us.us.preheader ], [ %indvars.iv.next125, %._crit_edge97.split.us.us.us ]
  %47 = trunc i64 %indvars.iv124 to i32
  %48 = mul i32 %1, %47
  %reass.sub = sub i32 %48, %39
  %49 = add i32 %reass.sub, 1
  %50 = mul nuw nsw i64 %indvars.iv124, %46
  br label %.preheader92.us.us.us

.preheader92.us.us.us:                            ; preds = %._crit_edge.us.us.us, %.preheader93.us.us
  %indvars.iv119 = phi i64 [ %indvars.iv.next120, %._crit_edge.us.us.us ], [ 0, %.preheader93.us.us ]
  %51 = trunc nuw nsw i64 %indvars.iv119 to i32
  %52 = add i32 %49, %51
  %53 = sext i32 %52 to i64
  %invariant.gep = getelementptr i8, ptr %31, i64 %53
  br label %54

54:                                               ; preds = %54, %.preheader92.us.us.us
  %indvars.iv = phi i64 [ %indvars.iv.next, %54 ], [ 0, %.preheader92.us.us.us ]
  %.07895.us.us.us = phi i32 [ %61, %54 ], [ 16384, %.preheader92.us.us.us ]
  %55 = getelementptr inbounds nuw i16, ptr %36, i64 %indvars.iv
  %56 = load i16, ptr %55, align 2
  %57 = sext i16 %56 to i32
  %gep = getelementptr i8, ptr %invariant.gep, i64 %indvars.iv
  %58 = load i8, ptr %gep, align 1
  %59 = zext i8 %58 to i32
  %60 = mul nsw i32 %59, %57
  %61 = add nsw i32 %60, %.07895.us.us.us
  %indvars.iv.next = add nuw nsw i64 %indvars.iv, 1
  %exitcond.not = icmp eq i64 %indvars.iv.next, %wide.trip.count
  br i1 %exitcond.not, label %._crit_edge.us.us.us, label %54, !llvm.loop !17

._crit_edge.us.us.us:                             ; preds = %54
  %62 = add nsw i32 %61, %42
  %63 = ashr i32 %62, %23
  %64 = trunc i32 %63 to i16
  %65 = add nuw nsw i64 %indvars.iv119, %50
  %66 = getelementptr inbounds nuw [17792 x i16], ptr %12, i64 0, i64 %65
  store i16 %64, ptr %66, align 2
  %indvars.iv.next120 = add nuw nsw i64 %indvars.iv119, 1
  %exitcond123.not = icmp eq i64 %indvars.iv.next120, %wide.trip.count122
  br i1 %exitcond123.not, label %._crit_edge97.split.us.us.us, label %.preheader92.us.us.us, !llvm.loop !18

._crit_edge97.split.us.us.us:                     ; preds = %._crit_edge.us.us.us
  %indvars.iv.next125 = add nuw nsw i64 %indvars.iv124, 1
  %exitcond128.not = icmp eq i64 %indvars.iv.next125, %wide.trip.count137
  br i1 %exitcond128.not, label %._crit_edge, label %.preheader93.us.us, !llvm.loop !19

.preheader93.us:                                  ; preds = %.preheader93.lr.ph.split.us, %._crit_edge97.split.us101
  %indvars.iv134 = phi i64 [ %indvars.iv.next135, %._crit_edge97.split.us101 ], [ 0, %.preheader93.lr.ph.split.us ]
  %67 = mul nuw nsw i64 %indvars.iv134, %46
  br label %.preheader92.us99

.preheader92.us99:                                ; preds = %.preheader93.us, %.preheader92.us99
  %indvars.iv129 = phi i64 [ 0, %.preheader93.us ], [ %indvars.iv.next130, %.preheader92.us99 ]
  %68 = add nuw nsw i64 %indvars.iv129, %67
  %69 = getelementptr inbounds nuw [17792 x i16], ptr %12, i64 0, i64 %68
  store i16 %45, ptr %69, align 2
  %indvars.iv.next130 = add nuw nsw i64 %indvars.iv129, 1
  %exitcond133.not = icmp eq i64 %indvars.iv.next130, %46
  br i1 %exitcond133.not, label %._crit_edge97.split.us101, label %.preheader92.us99, !llvm.loop !18

._crit_edge97.split.us101:                        ; preds = %.preheader92.us99
  %indvars.iv.next135 = add nuw nsw i64 %indvars.iv134, 1
  %exitcond138.not = icmp eq i64 %indvars.iv.next135, %wide.trip.count137
  br i1 %exitcond138.not, label %._crit_edge, label %.preheader93.us, !llvm.loop !19

._crit_edge:                                      ; preds = %._crit_edge97.split.us.us.us, %._crit_edge97.split.us101, %.preheader93.lr.ph, %11
  %70 = mul nsw i32 %19, %4
  %71 = sext i32 %70 to i64
  %72 = getelementptr inbounds i16, ptr %12, i64 %71
  %73 = and i32 %9, 15
  %.val84 = load ptr, ptr %7, align 8
  %74 = mul nuw nsw i32 %73, %15
  %75 = zext nneg i32 %74 to i64
  %76 = getelementptr inbounds nuw i16, ptr %.val84, i64 %75
  %77 = sub nsw i32 22, %23
  %78 = icmp sgt i32 %5, 0
  br i1 %78, label %.preheader.lr.ph, label %._crit_edge111

.preheader.lr.ph:                                 ; preds = %._crit_edge
  %79 = icmp sgt i32 %4, 0
  %80 = shl nuw i32 1, %77
  %81 = shl nuw i32 1, %27
  %82 = ashr i32 %81, 1
  br i1 %79, label %.preheader.us.preheader, label %._crit_edge111

.preheader.us.preheader:                          ; preds = %.preheader.lr.ph
  %83 = zext nneg i32 %4 to i64
  %84 = sext i32 %3 to i64
  %85 = zext nneg i32 %18 to i64
  %wide.trip.count153 = zext nneg i32 %5 to i64
  %wide.trip.count147 = zext nneg i32 %4 to i64
  br label %.preheader.us

.preheader.us:                                    ; preds = %.preheader.us.preheader, %._crit_edge109.us
  %indvars.iv149 = phi i64 [ 0, %.preheader.us.preheader ], [ %indvars.iv.next150, %._crit_edge109.us ]
  %86 = sub nsw i64 %indvars.iv149, %85
  %87 = add nsw i64 %86, 1
  %88 = mul nsw i64 %indvars.iv149, %84
  %invariant.gep159 = getelementptr i8, ptr %2, i64 %88
  br label %89

89:                                               ; preds = %.preheader.us, %._crit_edge106.us
  %indvars.iv144 = phi i64 [ 0, %.preheader.us ], [ %indvars.iv.next145, %._crit_edge106.us ]
  %90 = load i16, ptr %13, align 8
  %.not113 = icmp eq i16 %90, 0
  br i1 %.not113, label %._crit_edge106.us, label %.lr.ph.us.preheader

.lr.ph.us.preheader:                              ; preds = %89
  %wide.trip.count142 = zext i16 %90 to i64
  %invariant.gep157 = getelementptr i16, ptr %72, i64 %indvars.iv144
  br label %.lr.ph.us

._crit_edge106.us:                                ; preds = %.lr.ph.us, %89
  %.074.lcssa.us = phi i32 [ %80, %89 ], [ %113, %.lr.ph.us ]
  %91 = load i32, ptr %24, align 8
  %92 = shl nuw i32 1, %91
  %93 = ashr i32 %92, 1
  %94 = add nsw i32 %93, %.074.lcssa.us
  %95 = ashr i32 %94, %91
  %96 = sub nsw i32 %77, %91
  %.neg.us = shl nsw i32 -1, %96
  %97 = add nsw i32 %96, -1
  %.neg81.us = shl nsw i32 -1, %97
  %.neg82.us = add i32 %.neg81.us, %.neg.us
  %98 = add i32 %.neg82.us, %95
  %sext.us = shl i32 %98, 16
  %99 = ashr exact i32 %sext.us, 16
  %100 = add nsw i32 %99, %82
  %101 = ashr i32 %100, %27
  %102 = tail call i32 @llvm.smax.i32(i32 %101, i32 0)
  %103 = tail call i32 @llvm.umin.i32(i32 %102, i32 255)
  %104 = trunc nuw i32 %103 to i8
  %gep160 = getelementptr i8, ptr %invariant.gep159, i64 %indvars.iv144
  store i8 %104, ptr %gep160, align 1
  %indvars.iv.next145 = add nuw nsw i64 %indvars.iv144, 1
  %exitcond148.not = icmp eq i64 %indvars.iv.next145, %wide.trip.count147
  br i1 %exitcond148.not, label %._crit_edge109.us, label %89, !llvm.loop !20

.lr.ph.us:                                        ; preds = %.lr.ph.us.preheader, %.lr.ph.us
  %indvars.iv139 = phi i64 [ 0, %.lr.ph.us.preheader ], [ %indvars.iv.next140, %.lr.ph.us ]
  %.074103.us = phi i32 [ %80, %.lr.ph.us.preheader ], [ %113, %.lr.ph.us ]
  %105 = getelementptr inbounds nuw i16, ptr %76, i64 %indvars.iv139
  %106 = load i16, ptr %105, align 2
  %107 = sext i16 %106 to i32
  %108 = add nsw i64 %87, %indvars.iv139
  %109 = mul nsw i64 %108, %83
  %gep158 = getelementptr i16, ptr %invariant.gep157, i64 %109
  %110 = load i16, ptr %gep158, align 2
  %111 = sext i16 %110 to i32
  %112 = mul nsw i32 %111, %107
  %113 = add nsw i32 %112, %.074103.us
  %indvars.iv.next140 = add nuw nsw i64 %indvars.iv139, 1
  %exitcond143.not = icmp eq i64 %indvars.iv.next140, %wide.trip.count142
  br i1 %exitcond143.not, label %._crit_edge106.us, label %.lr.ph.us, !llvm.loop !21

._crit_edge109.us:                                ; preds = %._crit_edge106.us
  %indvars.iv.next150 = add nuw nsw i64 %indvars.iv149, 1
  %exitcond154.not = icmp eq i64 %indvars.iv.next150, %wide.trip.count153
  br i1 %exitcond154.not, label %._crit_edge111, label %.preheader.us, !llvm.loop !22

._crit_edge111:                                   ; preds = %._crit_edge109.us, %.preheader.lr.ph, %._crit_edge
  ret void
}